# SymbolsHelper-Confirmed: 5.14.2 amd64
libQt5RemoteObjects.so.5 libqt5remoteobjects5 #MINVER#
* Build-Depends-Package: libqt5remoteobjects5-dev
 Qt_5.0@Qt_5.0 5.12.5
 Qt_5.10@Qt_5.10 5.12.5
 Qt_5.11@Qt_5.11 5.12.5
 Qt_5.12@Qt_5.12 5.12.5
 Qt_5.13@Qt_5.13 5.14.2
 Qt_5.14@Qt_5.14 5.14.2
 Qt_5.1@Qt_5.1 5.12.5
 Qt_5.2@Qt_5.2 5.12.5
 Qt_5.3@Qt_5.3 5.12.5
 Qt_5.4@Qt_5.4 5.12.5
 Qt_5.5@Qt_5.5 5.12.5
 Qt_5.6@Qt_5.6 5.12.5
 Qt_5.7@Qt_5.7 5.12.5
 Qt_5.8@Qt_5.8 5.12.5
 Qt_5.9@Qt_5.9 5.12.5
 Qt_5@Qt_5 5.12.5
 Qt_5_PRIVATE_API@Qt_5_PRIVATE_API 5.12.5
 _ZN12IoDeviceBase11qt_metacallEN11QMetaObject4CallEiPPv@Qt_5_PRIVATE_API 5.12.5
 _ZN12IoDeviceBase11qt_metacastEPKc@Qt_5_PRIVATE_API 5.12.5
 _ZN12IoDeviceBase12disconnectedEv@Qt_5_PRIVATE_API 5.12.5
 _ZN12IoDeviceBase12removeSourceERK7QString@Qt_5_PRIVATE_API 5.12.5
 _ZN12IoDeviceBase16staticMetaObjectE@Qt_5_PRIVATE_API 5.12.5
 _ZN12IoDeviceBase20initializeDataStreamEv@Qt_5_PRIVATE_API 5.12.5
 _ZN12IoDeviceBase4readERN15QtRemoteObjects27QRemoteObjectPacketTypeEnumER7QString@Qt_5_PRIVATE_API 5.12.5
 _ZN12IoDeviceBase5closeEv@Qt_5_PRIVATE_API 5.12.5
 _ZN12IoDeviceBase5writeERK10QByteArray@Qt_5_PRIVATE_API 5.12.5
 _ZN12IoDeviceBase5writeERK10QByteArrayx@Qt_5_PRIVATE_API 5.12.5
 _ZN12IoDeviceBase9addSourceERK7QString@Qt_5_PRIVATE_API 5.12.5
 _ZN12IoDeviceBase9readyReadEv@Qt_5_PRIVATE_API 5.12.5
 _ZN12IoDeviceBaseC1EP7QObject@Qt_5_PRIVATE_API 5.12.5
 _ZN12IoDeviceBaseC2EP7QObject@Qt_5_PRIVATE_API 5.12.5
 _ZN12IoDeviceBaseD0Ev@Qt_5_PRIVATE_API 5.12.5
 _ZN12IoDeviceBaseD1Ev@Qt_5_PRIVATE_API 5.12.5
 _ZN12IoDeviceBaseD2Ev@Qt_5_PRIVATE_API 5.12.5
 _ZN14ClientIoDevice11qt_metacallEN11QMetaObject4CallEiPPv@Qt_5_PRIVATE_API 5.12.5
 _ZN14ClientIoDevice11qt_metacastEPKc@Qt_5_PRIVATE_API 5.12.5
 _ZN14ClientIoDevice15shouldReconnectEPS_@Qt_5_PRIVATE_API 5.12.5
 _ZN14ClientIoDevice16staticMetaObjectE@Qt_5_PRIVATE_API 5.12.5
 _ZN14ClientIoDevice20disconnectFromServerEv@Qt_5_PRIVATE_API 5.12.5
 _ZN14ClientIoDeviceC1EP7QObject@Qt_5_PRIVATE_API 5.12.5
 _ZN14ClientIoDeviceC2EP7QObject@Qt_5_PRIVATE_API 5.12.5
 _ZN14ClientIoDeviceD0Ev@Qt_5_PRIVATE_API 5.12.5
 _ZN14ClientIoDeviceD1Ev@Qt_5_PRIVATE_API 5.12.5
 _ZN14ClientIoDeviceD2Ev@Qt_5_PRIVATE_API 5.12.5
 _ZN14ServerIoDevice11qt_metacallEN11QMetaObject4CallEiPPv@Qt_5_PRIVATE_API 5.12.5
 _ZN14ServerIoDevice11qt_metacastEPKc@Qt_5_PRIVATE_API 5.12.5
 _ZN14ServerIoDevice16staticMetaObjectE@Qt_5_PRIVATE_API 5.12.5
 _ZN14ServerIoDeviceC1EP7QObject@Qt_5_PRIVATE_API 5.12.5
 _ZN14ServerIoDeviceC2EP7QObject@Qt_5_PRIVATE_API 5.12.5
 _ZN15QtRemoteObjects20copyStoredPropertiesEPK11QMetaObjectPKvPv@Qt_5 5.12.5
 _ZN15QtRemoteObjects20copyStoredPropertiesEPK11QMetaObjectPKvR11QDataStream@Qt_5 5.12.5
 _ZN15QtRemoteObjects20copyStoredPropertiesEPK11QMetaObjectR11QDataStreamPv@Qt_5 5.12.5
 _ZN17QRemoteObjectHost10setHostUrlERK4QUrlN21QRemoteObjectHostBase14AllowedSchemasE@Qt_5 5.12.5
 _ZN17QRemoteObjectHost11qt_metacallEN11QMetaObject4CallEiPPv@Qt_5 5.12.5
 _ZN17QRemoteObjectHost11qt_metacastEPKc@Qt_5 5.12.5
 _ZN17QRemoteObjectHost16staticMetaObjectE@Qt_5 5.12.5
 _ZN17QRemoteObjectHostC1EP7QObject@Qt_5 5.12.5
 _ZN17QRemoteObjectHostC1ER24QRemoteObjectHostPrivateP7QObject@Qt_5 5.12.5
 _ZN17QRemoteObjectHostC1ERK4QUrlP7QObject@Qt_5 5.12.5
 _ZN17QRemoteObjectHostC1ERK4QUrlS2_N21QRemoteObjectHostBase14AllowedSchemasEP7QObject@Qt_5 5.12.5
 _ZN17QRemoteObjectHostC2EP7QObject@Qt_5 5.12.5
 _ZN17QRemoteObjectHostC2ER24QRemoteObjectHostPrivateP7QObject@Qt_5 5.12.5
 _ZN17QRemoteObjectHostC2ERK4QUrlP7QObject@Qt_5 5.12.5
 _ZN17QRemoteObjectHostC2ERK4QUrlS2_N21QRemoteObjectHostBase14AllowedSchemasEP7QObject@Qt_5 5.12.5
 _ZN17QRemoteObjectHostD0Ev@Qt_5 5.12.5
 _ZN17QRemoteObjectHostD1Ev@Qt_5 5.12.5
 _ZN17QRemoteObjectHostD2Ev@Qt_5 5.12.5
 _ZN17QRemoteObjectNode10timerEventEP11QTimerEvent@Qt_5 5.12.5
 _ZN17QRemoteObjectNode11qt_metacallEN11QMetaObject4CallEiPPv@Qt_5 5.12.5
 _ZN17QRemoteObjectNode11qt_metacastEPKc@Qt_5 5.12.5
 _ZN17QRemoteObjectNode12acquireModelERK7QStringN15QtRemoteObjects13InitialActionERK7QVectorIiE@Qt_5 5.12.5
 _ZN17QRemoteObjectNode13connectToNodeERK4QUrl@Qt_5 5.12.5
 _ZN17QRemoteObjectNode14acquireDynamicERK7QString@Qt_5 5.12.5
 _ZN17QRemoteObjectNode14setRegistryUrlERK4QUrl@Qt_5 5.12.5
 _ZN17QRemoteObjectNode15waitForRegistryEi@Qt_5 5.12.5
 _ZN17QRemoteObjectNode16staticMetaObjectE@Qt_5 5.12.5
 _ZN17QRemoteObjectNode17initializeReplicaEP20QRemoteObjectReplicaRK7QString@Qt_5 5.12.5
 _ZN17QRemoteObjectNode17persistPropertiesERK7QStringRK10QByteArrayRK5QListI8QVariantE@Qt_5 5.12.5
 _ZN17QRemoteObjectNode17remoteObjectAddedERK5QPairI7QString31QRemoteObjectSourceLocationInfoE@Qt_5 5.12.5
 _ZN17QRemoteObjectNode17setPersistedStoreEP35QRemoteObjectAbstractPersistedStore@Qt_5 5.12.5
 _ZN17QRemoteObjectNode18retrievePropertiesERK7QStringRK10QByteArray@Qt_5 5.12.5
 _ZN17QRemoteObjectNode19remoteObjectRemovedERK5QPairI7QString31QRemoteObjectSourceLocationInfoE@Qt_5 5.12.5
 _ZN17QRemoteObjectNode20setHeartbeatIntervalEi@Qt_5 5.12.5
 _ZN17QRemoteObjectNode22registerExternalSchemaERK7QStringSt8functionIFv4QUrlEE@Qt_5 5.12.5
 _ZN17QRemoteObjectNode23addClientSideConnectionEP9QIODevice@Qt_5 5.12.5
 _ZN17QRemoteObjectNode24heartbeatIntervalChangedEi@Qt_5 5.12.5
 _ZN17QRemoteObjectNode5errorENS_9ErrorCodeE@Qt_5 5.12.5
 _ZN17QRemoteObjectNode7setNameERK7QString@Qt_5 5.12.5
 _ZN17QRemoteObjectNodeC1EP7QObject@Qt_5 5.12.5
 _ZN17QRemoteObjectNodeC1ER24QRemoteObjectNodePrivateP7QObject@Qt_5 5.12.5
 _ZN17QRemoteObjectNodeC1ERK4QUrlP7QObject@Qt_5 5.12.5
 _ZN17QRemoteObjectNodeC2EP7QObject@Qt_5 5.12.5
 _ZN17QRemoteObjectNodeC2ER24QRemoteObjectNodePrivateP7QObject@Qt_5 5.12.5
 _ZN17QRemoteObjectNodeC2ERK4QUrlP7QObject@Qt_5 5.12.5
 _ZN17QRemoteObjectNodeD0Ev@Qt_5 5.12.5
 _ZN17QRemoteObjectNodeD1Ev@Qt_5 5.12.5
 _ZN17QRemoteObjectNodeD2Ev@Qt_5 5.12.5
 _ZN17QtROClientFactory8instanceEv@Qt_5 5.12.5
 _ZN17QtROServerFactory8instanceEv@Qt_5 5.12.5
 _ZN20QRemoteObjectReplica10initializeEv@Qt_5 5.12.5
 _ZN20QRemoteObjectReplica11initializedEv@Qt_5 5.12.5
 _ZN20QRemoteObjectReplica11qt_metacallEN11QMetaObject4CallEiPPv@Qt_5 5.12.5
 _ZN20QRemoteObjectReplica11qt_metacastEPKc@Qt_5 5.12.5
 _ZN20QRemoteObjectReplica12stateChangedENS_5StateES0_@Qt_5 5.12.5
 _ZN20QRemoteObjectReplica13sendWithReplyEN11QMetaObject4CallEiRK5QListI8QVariantE@Qt_5 5.12.5
 _ZN20QRemoteObjectReplica13setPropertiesERK5QListI8QVariantE@Qt_5 5.12.5
 _ZN20QRemoteObjectReplica13waitForSourceEi@Qt_5 5.12.5
 _ZN20QRemoteObjectReplica14initializeNodeEP17QRemoteObjectNodeRK7QString@Qt_5 5.12.5
 _ZN20QRemoteObjectReplica16staticMetaObjectE@Qt_5 5.12.5
 _ZN20QRemoteObjectReplica4sendEN11QMetaObject4CallEiRK5QListI8QVariantE@Qt_5 5.12.5
 _ZN20QRemoteObjectReplica7setNodeEP17QRemoteObjectNode@Qt_5 5.12.5
 _ZN20QRemoteObjectReplica8setChildEiRK8QVariant@Qt_5 5.12.5
 _ZN20QRemoteObjectReplicaC1ENS_15ConstructorTypeE@Qt_5 5.12.5
 _ZN20QRemoteObjectReplicaC1ER14QObjectPrivateP7QObject@Qt_5 5.12.5
 _ZN20QRemoteObjectReplicaC2ENS_15ConstructorTypeE@Qt_5 5.12.5
 _ZN20QRemoteObjectReplicaC2ER14QObjectPrivateP7QObject@Qt_5 5.12.5
 _ZN20QRemoteObjectReplicaD0Ev@Qt_5 5.12.5
 _ZN20QRemoteObjectReplicaD1Ev@Qt_5 5.12.5
 _ZN20QRemoteObjectReplicaD2Ev@Qt_5 5.12.5
 _ZN21QRemoteObjectHostBase10setHostUrlERK4QUrlNS_14AllowedSchemasE@Qt_5 5.12.5
 _ZN21QRemoteObjectHostBase11qt_metacallEN11QMetaObject4CallEiPPv@Qt_5 5.12.5
 _ZN21QRemoteObjectHostBase11qt_metacastEPKc@Qt_5 5.12.5
 _ZN21QRemoteObjectHostBase12reverseProxyESt8functionIFbRK7QStringS3_EE@Qt_5 5.12.5
 _ZN21QRemoteObjectHostBase14enableRemotingEP18QAbstractItemModelRK7QString7QVectorIiEP19QItemSelectionModel@Qt_5 5.12.5
 _ZN21QRemoteObjectHostBase14enableRemotingEP7QObjectPK12SourceApiMapS1_@Qt_5 5.12.5
 _ZN21QRemoteObjectHostBase14enableRemotingEP7QObjectRK7QString@Qt_5 5.12.5
 _ZN21QRemoteObjectHostBase15disableRemotingEP7QObject@Qt_5 5.12.5
 _ZN21QRemoteObjectHostBase16staticMetaObjectE@Qt_5 5.12.5
 _ZN21QRemoteObjectHostBase21addHostSideConnectionEP9QIODevice@Qt_5 5.12.5
 _ZN21QRemoteObjectHostBase5proxyERK4QUrlS2_St8functionIFbRK7QStringS6_EE@Qt_5 5.12.5
 _ZN21QRemoteObjectHostBase7setNameERK7QString@Qt_5 5.12.5
 _ZN21QRemoteObjectHostBaseC1ER28QRemoteObjectHostBasePrivateP7QObject@Qt_5 5.12.5
 _ZN21QRemoteObjectHostBaseC2ER28QRemoteObjectHostBasePrivateP7QObject@Qt_5 5.12.5
 _ZN21QRemoteObjectHostBaseD0Ev@Qt_5 5.12.5
 _ZN21QRemoteObjectHostBaseD1Ev@Qt_5 5.12.5
 _ZN21QRemoteObjectHostBaseD2Ev@Qt_5 5.12.5
 _ZN21QRemoteObjectRegistry10initializeEv@Qt_5 5.12.5
 _ZN21QRemoteObjectRegistry11qt_metacallEN11QMetaObject4CallEiPPv@Qt_5 5.12.5
 _ZN21QRemoteObjectRegistry11qt_metacastEPKc@Qt_5 5.12.5
 _ZN21QRemoteObjectRegistry12removeSourceERK5QPairI7QString31QRemoteObjectSourceLocationInfoE@Qt_5 5.12.5
 _ZN21QRemoteObjectRegistry16staticMetaObjectE@Qt_5 5.12.5
 _ZN21QRemoteObjectRegistry17registerMetatypesEv@Qt_5 5.12.5
 _ZN21QRemoteObjectRegistry17remoteObjectAddedERK5QPairI7QString31QRemoteObjectSourceLocationInfoE@Qt_5 5.12.5
 _ZN21QRemoteObjectRegistry19remoteObjectRemovedERK5QPairI7QString31QRemoteObjectSourceLocationInfoE@Qt_5 5.12.5
 _ZN21QRemoteObjectRegistry22pushToRegistryIfNeededEv@Qt_5 5.12.5
 _ZN21QRemoteObjectRegistry9addSourceERK5QPairI7QString31QRemoteObjectSourceLocationInfoE@Qt_5 5.12.5
 _ZN21QRemoteObjectRegistryC1EP17QRemoteObjectNodeRK7QStringP7QObject@Qt_5 5.12.5
 _ZN21QRemoteObjectRegistryC1EP7QObject@Qt_5 5.12.5
 _ZN21QRemoteObjectRegistryC2EP17QRemoteObjectNodeRK7QStringP7QObject@Qt_5 5.12.5
 _ZN21QRemoteObjectRegistryC2EP7QObject@Qt_5 5.12.5
 _ZN21QRemoteObjectRegistryD0Ev@Qt_5 5.12.5
 _ZN21QRemoteObjectRegistryD1Ev@Qt_5 5.12.5
 _ZN21QRemoteObjectRegistryD2Ev@Qt_5 5.12.5
 _ZN24QRemoteObjectPendingCall15waitForFinishedEi@Qt_5 5.12.5
 _ZN24QRemoteObjectPendingCall17fromCompletedCallERK8QVariant@Qt_5 5.12.5
 _ZN24QRemoteObjectPendingCallC1EP28QRemoteObjectPendingCallData@Qt_5 5.12.5
 _ZN24QRemoteObjectPendingCallC1ERKS_@Qt_5 5.12.5
 _ZN24QRemoteObjectPendingCallC1Ev@Qt_5 5.12.5
 _ZN24QRemoteObjectPendingCallC2EP28QRemoteObjectPendingCallData@Qt_5 5.12.5
 _ZN24QRemoteObjectPendingCallC2ERKS_@Qt_5 5.12.5
 _ZN24QRemoteObjectPendingCallC2Ev@Qt_5 5.12.5
 _ZN24QRemoteObjectPendingCallD1Ev@Qt_5 5.12.5
 _ZN24QRemoteObjectPendingCallD2Ev@Qt_5 5.12.5
 _ZN24QRemoteObjectPendingCallaSERKS_@Qt_5 5.12.5
 _ZN25QAbstractItemModelReplica11initializedEv@Qt_5 5.12.5
 _ZN25QAbstractItemModelReplica11qt_metacallEN11QMetaObject4CallEiPPv@Qt_5 5.12.5
 _ZN25QAbstractItemModelReplica11qt_metacastEPKc@Qt_5 5.12.5
 (subst)_ZN25QAbstractItemModelReplica16setRootCacheSizeE{size_t}@Qt_5 5.12.5
 _ZN25QAbstractItemModelReplica16staticMetaObjectE@Qt_5 5.12.5
 _ZN25QAbstractItemModelReplica7setDataERK11QModelIndexRK8QVarianti@Qt_5 5.12.5
 _ZN25QAbstractItemModelReplicaC1EP39QAbstractItemModelReplicaImplementationN15QtRemoteObjects13InitialActionERK7QVectorIiE@Qt_5 5.12.5
 _ZN25QAbstractItemModelReplicaC2EP39QAbstractItemModelReplicaImplementationN15QtRemoteObjects13InitialActionERK7QVectorIiE@Qt_5 5.12.5
 _ZN25QAbstractItemModelReplicaD0Ev@Qt_5 5.12.5
 _ZN25QAbstractItemModelReplicaD1Ev@Qt_5 5.12.5
 _ZN25QAbstractItemModelReplicaD2Ev@Qt_5 5.12.5
 _ZN25QConnectionAbstractServer11qt_metacallEN11QMetaObject4CallEiPPv@Qt_5_PRIVATE_API 5.12.5
 _ZN25QConnectionAbstractServer11qt_metacastEPKc@Qt_5_PRIVATE_API 5.12.5
 _ZN25QConnectionAbstractServer13newConnectionEv@Qt_5_PRIVATE_API 5.12.5
 _ZN25QConnectionAbstractServer16staticMetaObjectE@Qt_5_PRIVATE_API 5.12.5
 _ZN25QConnectionAbstractServer21nextPendingConnectionEv@Qt_5_PRIVATE_API 5.12.5
 _ZN25QConnectionAbstractServerC1EP7QObject@Qt_5_PRIVATE_API 5.12.5
 _ZN25QConnectionAbstractServerC2EP7QObject@Qt_5_PRIVATE_API 5.12.5
 _ZN25QConnectionAbstractServerD0Ev@Qt_5_PRIVATE_API 5.12.5
 _ZN25QConnectionAbstractServerD1Ev@Qt_5_PRIVATE_API 5.12.5
 _ZN25QConnectionAbstractServerD2Ev@Qt_5_PRIVATE_API 5.12.5
 _ZN25QRemoteObjectRegistryHost11qt_metacallEN11QMetaObject4CallEiPPv@Qt_5 5.12.5
 _ZN25QRemoteObjectRegistryHost11qt_metacastEPKc@Qt_5 5.12.5
 _ZN25QRemoteObjectRegistryHost14setRegistryUrlERK4QUrl@Qt_5 5.12.5
 _ZN25QRemoteObjectRegistryHost16staticMetaObjectE@Qt_5 5.12.5
 _ZN25QRemoteObjectRegistryHostC1ER32QRemoteObjectRegistryHostPrivateP7QObject@Qt_5 5.12.5
 _ZN25QRemoteObjectRegistryHostC1ERK4QUrlP7QObject@Qt_5 5.12.5
 _ZN25QRemoteObjectRegistryHostC2ER32QRemoteObjectRegistryHostPrivateP7QObject@Qt_5 5.12.5
 _ZN25QRemoteObjectRegistryHostC2ERK4QUrlP7QObject@Qt_5 5.12.5
 _ZN25QRemoteObjectRegistryHostD0Ev@Qt_5 5.12.5
 _ZN25QRemoteObjectRegistryHostD1Ev@Qt_5 5.12.5
 _ZN25QRemoteObjectRegistryHostD2Ev@Qt_5 5.12.5
 _ZN26QRemoteObjectSettingsStore11qt_metacallEN11QMetaObject4CallEiPPv@Qt_5 5.12.5
 _ZN26QRemoteObjectSettingsStore11qt_metacastEPKc@Qt_5 5.12.5
 _ZN26QRemoteObjectSettingsStore14savePropertiesERK7QStringRK10QByteArrayRK5QListI8QVariantE@Qt_5 5.12.5
 _ZN26QRemoteObjectSettingsStore16staticMetaObjectE@Qt_5 5.12.5
 _ZN26QRemoteObjectSettingsStore17restorePropertiesERK7QStringRK10QByteArray@Qt_5 5.12.5
 _ZN26QRemoteObjectSettingsStoreC1EP7QObject@Qt_5 5.12.5
 _ZN26QRemoteObjectSettingsStoreC2EP7QObject@Qt_5 5.12.5
 _ZN26QRemoteObjectSettingsStoreD0Ev@Qt_5 5.12.5
 _ZN26QRemoteObjectSettingsStoreD1Ev@Qt_5 5.12.5
 _ZN26QRemoteObjectSettingsStoreD2Ev@Qt_5 5.12.5
 _ZN27QRemoteObjectDynamicReplica11qt_metacallEN11QMetaObject4CallEiPPv@Qt_5 5.12.5
 _ZN27QRemoteObjectDynamicReplica11qt_metacastEPKc@Qt_5 5.12.5
 _ZN27QRemoteObjectDynamicReplicaC1EP17QRemoteObjectNodeRK7QString@Qt_5 5.12.5
 _ZN27QRemoteObjectDynamicReplicaC1Ev@Qt_5 5.12.5
 _ZN27QRemoteObjectDynamicReplicaC2EP17QRemoteObjectNodeRK7QString@Qt_5 5.12.5
 _ZN27QRemoteObjectDynamicReplicaC2Ev@Qt_5 5.12.5
 _ZN27QRemoteObjectDynamicReplicaD0Ev@Qt_5 5.12.5
 _ZN27QRemoteObjectDynamicReplicaD1Ev@Qt_5 5.12.5
 _ZN27QRemoteObjectDynamicReplicaD2Ev@Qt_5 5.12.5
 _ZN31QRemoteObjectPendingCallWatcher11qt_metacallEN11QMetaObject4CallEiPPv@Qt_5 5.12.5
 _ZN31QRemoteObjectPendingCallWatcher11qt_metacastEPKc@Qt_5 5.12.5
 _ZN31QRemoteObjectPendingCallWatcher15waitForFinishedEv@Qt_5 5.12.5
 _ZN31QRemoteObjectPendingCallWatcher16staticMetaObjectE@Qt_5 5.12.5
 _ZN31QRemoteObjectPendingCallWatcher8finishedEPS_@Qt_5 5.12.5
 _ZN31QRemoteObjectPendingCallWatcherC1ERK24QRemoteObjectPendingCallP7QObject@Qt_5 5.12.5
 _ZN31QRemoteObjectPendingCallWatcherC2ERK24QRemoteObjectPendingCallP7QObject@Qt_5 5.12.5
 _ZN31QRemoteObjectPendingCallWatcherD0Ev@Qt_5 5.12.5
 _ZN31QRemoteObjectPendingCallWatcherD1Ev@Qt_5 5.12.5
 _ZN31QRemoteObjectPendingCallWatcherD2Ev@Qt_5 5.12.5
 _ZN35QRemoteObjectAbstractPersistedStore11qt_metacallEN11QMetaObject4CallEiPPv@Qt_5 5.12.5
 _ZN35QRemoteObjectAbstractPersistedStore11qt_metacastEPKc@Qt_5 5.12.5
 _ZN35QRemoteObjectAbstractPersistedStore16staticMetaObjectE@Qt_5 5.12.5
 _ZN35QRemoteObjectAbstractPersistedStoreC1EP7QObject@Qt_5 5.12.5
 _ZN35QRemoteObjectAbstractPersistedStoreC1ER42QRemoteObjectAbstractPersistedStorePrivateP7QObject@Qt_5 5.12.5
 _ZN35QRemoteObjectAbstractPersistedStoreC2EP7QObject@Qt_5 5.12.5
 _ZN35QRemoteObjectAbstractPersistedStoreC2ER42QRemoteObjectAbstractPersistedStorePrivateP7QObject@Qt_5 5.12.5
 _ZN35QRemoteObjectAbstractPersistedStoreD0Ev@Qt_5 5.12.5
 _ZN35QRemoteObjectAbstractPersistedStoreD1Ev@Qt_5 5.12.5
 _ZN35QRemoteObjectAbstractPersistedStoreD2Ev@Qt_5 5.12.5
 _ZNK12IoDeviceBase10metaObjectEv@Qt_5_PRIVATE_API 5.12.5
 _ZNK12IoDeviceBase13remoteObjectsEv@Qt_5_PRIVATE_API 5.12.5
 _ZNK12IoDeviceBase14bytesAvailableEv@Qt_5_PRIVATE_API 5.12.5
 _ZNK14ClientIoDevice10deviceTypeEv@Qt_5_PRIVATE_API 5.12.5
 _ZNK14ClientIoDevice10metaObjectEv@Qt_5_PRIVATE_API 5.12.5
 _ZNK14ClientIoDevice3urlEv@Qt_5_PRIVATE_API 5.12.5
 _ZNK14ServerIoDevice10deviceTypeEv@Qt_5_PRIVATE_API 5.12.5
 _ZNK14ServerIoDevice10metaObjectEv@Qt_5_PRIVATE_API 5.12.5
 _ZNK17QRemoteObjectHost10metaObjectEv@Qt_5 5.12.5
 _ZNK17QRemoteObjectHost7hostUrlEv@Qt_5 5.12.5
 _ZNK17QRemoteObjectNode10metaObjectEv@Qt_5 5.12.5
 _ZNK17QRemoteObjectNode11registryUrlEv@Qt_5 5.12.5
 _ZNK17QRemoteObjectNode14persistedStoreEv@Qt_5 5.12.5
 _ZNK17QRemoteObjectNode17heartbeatIntervalEv@Qt_5 5.12.5
 _ZNK17QRemoteObjectNode8registryEv@Qt_5 5.12.5
 _ZNK17QRemoteObjectNode9instancesERK7QString@Qt_5 5.12.5
 _ZNK17QRemoteObjectNode9lastErrorEv@Qt_5 5.12.5
 _ZNK20QRemoteObjectReplica10metaObjectEv@Qt_5 5.12.5
 _ZNK20QRemoteObjectReplica13isInitializedEv@Qt_5 5.12.5
 _ZNK20QRemoteObjectReplica13propAsVariantEi@Qt_5 5.12.5
 _ZNK20QRemoteObjectReplica14isReplicaValidEv@Qt_5 5.12.5
 _ZNK20QRemoteObjectReplica17persistPropertiesERK7QStringRK10QByteArrayRK5QListI8QVariantE@Qt_5 5.12.5
 _ZNK20QRemoteObjectReplica18retrievePropertiesERK7QStringRK10QByteArray@Qt_5 5.12.5
 _ZNK20QRemoteObjectReplica4nodeEv@Qt_5 5.12.5
 _ZNK20QRemoteObjectReplica5stateEv@Qt_5 5.12.5
 _ZNK21QRemoteObjectHostBase10metaObjectEv@Qt_5 5.12.5
 _ZNK21QRemoteObjectHostBase7hostUrlEv@Qt_5 5.12.5
 _ZNK21QRemoteObjectRegistry10metaObjectEv@Qt_5 5.12.5
 _ZNK21QRemoteObjectRegistry15sourceLocationsEv@Qt_5 5.12.5
 _ZNK24QRemoteObjectPendingCall10isFinishedEv@Qt_5 5.12.5
 _ZNK24QRemoteObjectPendingCall11returnValueEv@Qt_5 5.12.5
 _ZNK24QRemoteObjectPendingCall5errorEv@Qt_5 5.12.5
 _ZNK25QAbstractItemModelReplica10headerDataEiN2Qt11OrientationEi@Qt_5 5.12.5
 _ZNK25QAbstractItemModelReplica10metaObjectEv@Qt_5 5.12.5
 _ZNK25QAbstractItemModelReplica11columnCountERK11QModelIndex@Qt_5 5.12.5
 _ZNK25QAbstractItemModelReplica11hasChildrenERK11QModelIndex@Qt_5 5.12.5
 _ZNK25QAbstractItemModelReplica13isInitializedEv@Qt_5 5.12.5
 _ZNK25QAbstractItemModelReplica13rootCacheSizeEv@Qt_5 5.12.5
 _ZNK25QAbstractItemModelReplica14availableRolesEv@Qt_5 5.12.5
 _ZNK25QAbstractItemModelReplica14selectionModelEv@Qt_5 5.12.5
 _ZNK25QAbstractItemModelReplica4dataERK11QModelIndexi@Qt_5 5.12.5
 _ZNK25QAbstractItemModelReplica5flagsERK11QModelIndex@Qt_5 5.12.5
 _ZNK25QAbstractItemModelReplica5indexEiiRK11QModelIndex@Qt_5 5.12.5
 _ZNK25QAbstractItemModelReplica6parentERK11QModelIndex@Qt_5 5.12.5
 _ZNK25QAbstractItemModelReplica7hasDataERK11QModelIndexi@Qt_5 5.12.5
 _ZNK25QAbstractItemModelReplica8rowCountERK11QModelIndex@Qt_5 5.12.5
 _ZNK25QAbstractItemModelReplica9roleNamesEv@Qt_5 5.12.5
 _ZNK25QConnectionAbstractServer10metaObjectEv@Qt_5_PRIVATE_API 5.12.5
 _ZNK25QRemoteObjectRegistryHost10metaObjectEv@Qt_5 5.12.5
 _ZNK26QRemoteObjectSettingsStore10metaObjectEv@Qt_5 5.12.5
 _ZNK27QRemoteObjectDynamicReplica10metaObjectEv@Qt_5 5.12.5
 _ZNK31QRemoteObjectPendingCallWatcher10isFinishedEv@Qt_5 5.12.5
 _ZNK31QRemoteObjectPendingCallWatcher10metaObjectEv@Qt_5 5.12.5
 _ZNK35QRemoteObjectAbstractPersistedStore10metaObjectEv@Qt_5 5.12.5
 (optional=templinst|arch=armel armhf powerpc)_ZSt4swapIN8QVariant7PrivateEENSt9enable_ifIXsrSt6__and_IJSt6__not_ISt15__is_tuple_likeIT_EESt21is_move_constructibleIS6_ESt18is_move_assignableIS6_EEE5valueEvE4typeERS6_SG_@Qt_5 5.12.5
 _ZTI12IoDeviceBase@Qt_5_PRIVATE_API 5.12.5
 _ZTI14ClientIoDevice@Qt_5_PRIVATE_API 5.12.5
 _ZTI14ServerIoDevice@Qt_5_PRIVATE_API 5.12.5
 _ZTI17QRemoteObjectHost@Qt_5 5.12.5
 _ZTI17QRemoteObjectNode@Qt_5 5.12.5
 _ZTI20QRemoteObjectReplica@Qt_5 5.12.5
 _ZTI21QRemoteObjectHostBase@Qt_5 5.12.5
 _ZTI21QRemoteObjectRegistry@Qt_5 5.12.5
 _ZTI24QRemoteObjectPendingCall@Qt_5 5.12.5
 _ZTI25QAbstractItemModelReplica@Qt_5 5.12.5
 _ZTI25QConnectionAbstractServer@Qt_5_PRIVATE_API 5.12.5
 _ZTI25QRemoteObjectRegistryHost@Qt_5 5.12.5
 _ZTI26QRemoteObjectSettingsStore@Qt_5 5.12.5
 _ZTI27QRemoteObjectDynamicReplica@Qt_5 5.12.5
 _ZTI31QRemoteObjectPendingCallWatcher@Qt_5 5.12.5
 _ZTI35QRemoteObjectAbstractPersistedStore@Qt_5 5.12.5
 (optional=gccinternal|arch=armel riscv64)_ZTIN9__gnu_cxx7__mutexE@Qt_5 5.12.5
 (optional=gccinternal|arch=armel riscv64)_ZTISt11_Mutex_baseILN9__gnu_cxx12_Lock_policyE1EE@Qt_5 5.12.5
 (optional=gccinternal|arch=!armel !riscv64)_ZTISt11_Mutex_baseILN9__gnu_cxx12_Lock_policyE2EE@Qt_5 5.12.5
 (optional=gccinternal|arch=armel riscv64)_ZTISt16_Sp_counted_baseILN9__gnu_cxx12_Lock_policyE1EE@Qt_5 5.12.5
 (optional=gccinternal|arch=!armel !riscv64)_ZTISt16_Sp_counted_baseILN9__gnu_cxx12_Lock_policyE2EE@Qt_5 5.12.5
 _ZTS12IoDeviceBase@Qt_5_PRIVATE_API 5.12.5
 _ZTS14ClientIoDevice@Qt_5_PRIVATE_API 5.12.5
 _ZTS14ServerIoDevice@Qt_5_PRIVATE_API 5.12.5
 _ZTS17QRemoteObjectHost@Qt_5 5.12.5
 _ZTS17QRemoteObjectNode@Qt_5 5.12.5
 _ZTS20QRemoteObjectReplica@Qt_5 5.12.5
 _ZTS21QRemoteObjectHostBase@Qt_5 5.12.5
 _ZTS21QRemoteObjectRegistry@Qt_5 5.12.5
 _ZTS24QRemoteObjectPendingCall@Qt_5 5.12.5
 _ZTS25QAbstractItemModelReplica@Qt_5 5.12.5
 _ZTS25QConnectionAbstractServer@Qt_5_PRIVATE_API 5.12.5
 _ZTS25QRemoteObjectRegistryHost@Qt_5 5.12.5
 _ZTS26QRemoteObjectSettingsStore@Qt_5 5.12.5
 _ZTS27QRemoteObjectDynamicReplica@Qt_5 5.12.5
 _ZTS31QRemoteObjectPendingCallWatcher@Qt_5 5.12.5
 _ZTS35QRemoteObjectAbstractPersistedStore@Qt_5 5.12.5
 (optional=gccinternal|arch=armel riscv64)_ZTSN9__gnu_cxx7__mutexE@Qt_5 5.12.5
 (optional=gccinternal|arch=armel riscv64)_ZTSSt11_Mutex_baseILN9__gnu_cxx12_Lock_policyE1EE@Qt_5 5.12.5
 (optional=gccinternal|arch=!armel !riscv64)_ZTSSt11_Mutex_baseILN9__gnu_cxx12_Lock_policyE2EE@Qt_5 5.12.5
 (optional=gccinternal|arch=armel riscv64)_ZTSSt16_Sp_counted_baseILN9__gnu_cxx12_Lock_policyE1EE@Qt_5 5.12.5
 (optional=gccinternal|arch=!armel !riscv64)_ZTSSt16_Sp_counted_baseILN9__gnu_cxx12_Lock_policyE2EE@Qt_5 5.12.5
 _ZTV12IoDeviceBase@Qt_5_PRIVATE_API 5.12.5
 _ZTV14ClientIoDevice@Qt_5_PRIVATE_API 5.12.5
 _ZTV14ServerIoDevice@Qt_5_PRIVATE_API 5.12.5
 _ZTV17QRemoteObjectHost@Qt_5 5.12.5
 _ZTV17QRemoteObjectNode@Qt_5 5.12.5
 _ZTV20QRemoteObjectReplica@Qt_5 5.12.5
 _ZTV21QRemoteObjectHostBase@Qt_5 5.12.5
 _ZTV21QRemoteObjectRegistry@Qt_5 5.12.5
 _ZTV25QAbstractItemModelReplica@Qt_5 5.12.5
 _ZTV25QConnectionAbstractServer@Qt_5_PRIVATE_API 5.12.5
 _ZTV25QRemoteObjectRegistryHost@Qt_5 5.12.5
 _ZTV26QRemoteObjectSettingsStore@Qt_5 5.12.5
 _ZTV27QRemoteObjectDynamicReplica@Qt_5 5.12.5
 _ZTV31QRemoteObjectPendingCallWatcher@Qt_5 5.12.5
 _ZTV35QRemoteObjectAbstractPersistedStore@Qt_5 5.12.5
